; ModuleID = 'bench/linux/original/exoparg3.ll'
source_filename = "bench/linux/original/exoparg3.ll"
target datalayout = "e-m:e-p270:32:32-p271:32:32-p272:64:64-i64:64-i128:128-f80:128-n8:16:32:64-S128"
target triple = "x86_64-unknown-linux-gnu"

@_acpi_module_name = internal constant [9 x i8] c"exoparg3\00", align 1
@.str = private unnamed_addr constant [21 x i8] c"Executed External Op\00", align 1
@.str.1 = private unnamed_addr constant [24 x i8] c"Unknown AML opcode 0x%X\00", align 1
@kmalloc_caches = external dso_local local_unnamed_addr global [3 x [14 x ptr]], align 16

; Function Attrs: fn_ret_thunk_extern nounwind null_pointer_is_valid
define dso_local i32 @acpi_ex_opcode_3A_0T_0R(ptr nocapture noundef readonly %0) local_unnamed_addr #0 align 16 {
  %2 = alloca i64, align 8
  %3 = getelementptr inbounds i8, ptr %0, i64 872
  %4 = getelementptr inbounds i8, ptr %0, i64 10
  %5 = load i16, ptr %4, align 2
  switch i16 %5, label %34 [
    i16 23346, label %6
    i16 21, label %33
  ]

6:                                                ; preds = %1
  call void @llvm.lifetime.start.p0(i64 8, ptr nonnull %2) #6
  store i64 0, ptr %2, align 8, !annotation !5
  call void asm sideeffect "# __raw_save_flags\0A\09pushf ; pop $0", "=*rm,~{memory},~{dirflag},~{fpsr},~{flags}"(ptr nonnull elementtype(i64) %2) #6, !srcloc !6
  %7 = load i64, ptr %2, align 8
  call void @llvm.lifetime.end.p0(i64 8, ptr nonnull %2) #6
  %8 = and i64 %7, 512
  %9 = icmp eq i64 %8, 0
  %10 = select i1 %9, i32 2080, i32 3264
  %11 = load ptr, ptr getelementptr inbounds ([3 x [14 x ptr]], ptr @kmalloc_caches, i64 0, i64 0, i64 4), align 16
  %12 = call noalias noundef align 8 dereferenceable_or_null(12) ptr @kmalloc_trace(ptr noundef %11, i32 noundef %10, i64 noundef 12) #7
  %13 = icmp eq ptr %12, null
  br i1 %13, label %31, label %14

14:                                               ; preds = %6
  %15 = load ptr, ptr %3, align 8
  %16 = getelementptr inbounds i8, ptr %15, i64 16
  %17 = load i64, ptr %16, align 8
  %18 = trunc i64 %17 to i32
  store i32 %18, ptr %12, align 8
  %19 = getelementptr i8, ptr %0, i64 880
  %20 = load ptr, ptr %19, align 8
  %21 = getelementptr inbounds i8, ptr %20, i64 16
  %22 = load i64, ptr %21, align 8
  %23 = trunc i64 %22 to i32
  %24 = getelementptr inbounds i8, ptr %12, i64 4
  store i32 %23, ptr %24, align 4
  %25 = getelementptr i8, ptr %0, i64 888
  %26 = load ptr, ptr %25, align 8
  %27 = getelementptr inbounds i8, ptr %26, i64 16
  %28 = load i64, ptr %27, align 8
  %29 = trunc i64 %28 to i32
  %30 = getelementptr inbounds i8, ptr %12, i64 8
  store i32 %29, ptr %30, align 8
  br label %31

31:                                               ; preds = %14, %6
  %32 = call i32 @acpi_os_signal(i32 noundef 0, ptr noundef %12) #6
  call void @kfree(ptr noundef %12) #6
  br label %36

33:                                               ; preds = %1
  tail call void (ptr, i32, ptr, ...) @acpi_error(ptr noundef nonnull @_acpi_module_name, i32 noundef 95, ptr noundef nonnull @.str) #6
  br label %36

34:                                               ; preds = %1
  %35 = zext i16 %5 to i32
  tail call void (ptr, i32, ptr, ...) @acpi_error(ptr noundef nonnull @_acpi_module_name, i32 noundef 101, ptr noundef nonnull @.str.1, i32 noundef %35) #6
  br label %36

36:                                               ; preds = %34, %33, %31
  %37 = phi i32 [ 12289, %34 ], [ 0, %33 ], [ %32, %31 ]
  ret i32 %37
}

; Function Attrs: mustprogress nocallback nofree nosync nounwind willreturn memory(argmem: readwrite)
declare void @llvm.lifetime.start.p0(i64 immarg, ptr nocapture) #1

; Function Attrs: null_pointer_is_valid
declare dso_local i32 @acpi_os_signal(i32 noundef, ptr noundef) local_unnamed_addr #2

; Function Attrs: null_pointer_is_valid
declare dso_local void @acpi_error(ptr noundef, i32 noundef, ptr noundef, ...) local_unnamed_addr #2

; Function Attrs: mustprogress nocallback nofree nosync nounwind willreturn memory(argmem: readwrite)
declare void @llvm.lifetime.end.p0(i64 immarg, ptr nocapture) #1

; Function Attrs: fn_ret_thunk_extern nounwind null_pointer_is_valid
define dso_local i32 @acpi_ex_opcode_3A_1T_1R(ptr noundef %0) local_unnamed_addr #0 align 16 {
  %2 = alloca i64, align 8
  %3 = alloca i64, align 8
  %4 = getelementptr inbounds i8, ptr %0, i64 872
  %5 = getelementptr inbounds i8, ptr %0, i64 10
  %6 = load i16, ptr %5, align 2
  %7 = icmp eq i16 %6, 158
  br i1 %7, label %8, label %60

8:                                                ; preds = %1
  %9 = load ptr, ptr %4, align 8
  %10 = getelementptr inbounds i8, ptr %9, i64 9
  %11 = load i8, ptr %10, align 1
  %12 = zext i8 %11 to i32
  %13 = tail call ptr @acpi_ut_create_internal_object_dbg(ptr noundef nonnull @_acpi_module_name, i32 noundef 144, i32 noundef 128, i32 noundef %12) #6
  %14 = icmp eq ptr %13, null
  br i1 %14, label %.thread11, label %15

15:                                               ; preds = %8
  %16 = getelementptr i8, ptr %0, i64 880
  %17 = load ptr, ptr %16, align 8
  %18 = getelementptr inbounds i8, ptr %17, i64 16
  %19 = load i64, ptr %18, align 8
  %20 = load ptr, ptr %4, align 8
  %21 = getelementptr inbounds i8, ptr %20, i64 24
  %22 = load i32, ptr %21, align 8
  %23 = zext i32 %22 to i64
  %24 = icmp ult i64 %19, %23
  br i1 %24, label %25, label %34

25:                                               ; preds = %15
  %26 = getelementptr i8, ptr %0, i64 888
  %27 = load ptr, ptr %26, align 8
  %28 = getelementptr inbounds i8, ptr %27, i64 16
  %29 = load i64, ptr %28, align 8
  %30 = add i64 %29, %19
  %31 = icmp ugt i64 %30, %23
  %32 = sub nsw i64 %23, %19
  %33 = select i1 %31, i64 %32, i64 %29
  br label %34

34:                                               ; preds = %25, %15
  %35 = phi i64 [ 0, %15 ], [ %33, %25 ]
  %36 = getelementptr inbounds i8, ptr %20, i64 9
  %37 = load i8, ptr %36, align 1
  switch i8 %37, label %.thread11 [
    i8 2, label %38
    i8 3, label %46
  ]

38:                                               ; preds = %34
  call void @llvm.lifetime.start.p0(i64 8, ptr nonnull %3) #6
  store i64 0, ptr %3, align 8, !annotation !5
  call void asm sideeffect "# __raw_save_flags\0A\09pushf ; pop $0", "=*rm,~{memory},~{dirflag},~{fpsr},~{flags}"(ptr nonnull elementtype(i64) %3) #6, !srcloc !6
  %39 = load i64, ptr %3, align 8
  call void @llvm.lifetime.end.p0(i64 8, ptr nonnull %3) #6
  %40 = and i64 %39, 512
  %41 = icmp eq i64 %40, 0
  %42 = select i1 %41, i32 2336, i32 3520
  %43 = add i64 %35, 1
  %44 = call noalias align 8 ptr @__kmalloc(i64 noundef %43, i32 noundef %42) #8
  %45 = icmp eq ptr %44, null
  br i1 %45, label %.thread11, label %55

46:                                               ; preds = %34
  %47 = icmp eq i64 %35, 0
  br i1 %47, label %62, label %48

48:                                               ; preds = %46
  call void @llvm.lifetime.start.p0(i64 8, ptr nonnull %2) #6
  store i64 0, ptr %2, align 8, !annotation !5
  call void asm sideeffect "# __raw_save_flags\0A\09pushf ; pop $0", "=*rm,~{memory},~{dirflag},~{fpsr},~{flags}"(ptr nonnull elementtype(i64) %2) #6, !srcloc !6
  %49 = load i64, ptr %2, align 8
  call void @llvm.lifetime.end.p0(i64 8, ptr nonnull %2) #6
  %50 = and i64 %49, 512
  %51 = icmp eq i64 %50, 0
  %52 = select i1 %51, i32 2336, i32 3520
  %53 = call noalias align 8 ptr @__kmalloc(i64 noundef %35, i32 noundef %52) #8
  %54 = icmp eq ptr %53, null
  br i1 %54, label %.thread11, label %55

55:                                               ; preds = %48, %38
  %.ph = phi ptr [ %44, %38 ], [ %53, %48 ]
  %56 = load ptr, ptr %4, align 8
  %57 = getelementptr inbounds i8, ptr %56, i64 16
  %58 = load ptr, ptr %57, align 8
  %59 = getelementptr i8, ptr %58, i64 %19
  call void @llvm.memcpy.p0.p0.i64(ptr nonnull align 8 %.ph, ptr align 1 %59, i64 %35, i1 false)
  br label %62

60:                                               ; preds = %1
  %61 = zext i16 %6 to i32
  tail call void (ptr, i32, ptr, ...) @acpi_error(ptr noundef nonnull @_acpi_module_name, i32 noundef 227, ptr noundef nonnull @.str.1, i32 noundef %61) #6
  br label %.thread11

62:                                               ; preds = %55, %46
  %63 = phi ptr [ %.ph, %55 ], [ null, %46 ]
  %64 = getelementptr inbounds i8, ptr %13, i64 16
  store ptr %63, ptr %64, align 8
  %65 = trunc i64 %35 to i32
  %66 = getelementptr inbounds i8, ptr %13, i64 24
  store i32 %65, ptr %66, align 8
  %67 = getelementptr inbounds i8, ptr %13, i64 12
  %68 = load i8, ptr %67, align 4
  %69 = or i8 %68, 4
  store i8 %69, ptr %67, align 4
  %70 = getelementptr i8, ptr %0, i64 896
  %71 = load ptr, ptr %70, align 8
  %72 = call i32 @acpi_ex_store(ptr noundef nonnull %13, ptr noundef %71, ptr noundef %0) #6
  %73 = icmp eq i32 %72, 0
  br i1 %73, label %74, label %.thread11

74:                                               ; preds = %62
  %75 = getelementptr inbounds i8, ptr %0, i64 1056
  %76 = load ptr, ptr %75, align 8
  %77 = icmp eq ptr %76, null
  br i1 %77, label %81, label %.thread11

.thread11:                                        ; preds = %34, %48, %38, %8, %60, %74, %62
  %78 = phi i32 [ 0, %74 ], [ %72, %62 ], [ 12291, %34 ], [ 4, %48 ], [ 4, %38 ], [ 4, %8 ], [ 12289, %60 ]
  %79 = phi ptr [ %13, %74 ], [ %13, %62 ], [ %13, %34 ], [ %13, %48 ], [ %13, %38 ], [ null, %8 ], [ null, %60 ]
  call void @acpi_ut_remove_reference(ptr noundef %79) #6
  %80 = getelementptr inbounds i8, ptr %0, i64 1056
  store ptr null, ptr %80, align 8
  br label %82

81:                                               ; preds = %74
  store ptr %13, ptr %75, align 8
  br label %82

82:                                               ; preds = %81, %.thread11
  %83 = phi i32 [ 0, %81 ], [ %78, %.thread11 ]
  ret i32 %83
}

; Function Attrs: null_pointer_is_valid
declare dso_local ptr @acpi_ut_create_internal_object_dbg(ptr noundef, i32 noundef, i32 noundef, i32 noundef) local_unnamed_addr #2

; Function Attrs: mustprogress nocallback nofree nounwind willreturn memory(argmem: readwrite)
declare void @llvm.memcpy.p0.p0.i64(ptr noalias nocapture writeonly, ptr noalias nocapture readonly, i64, i1 immarg) #3

; Function Attrs: null_pointer_is_valid
declare dso_local i32 @acpi_ex_store(ptr noundef, ptr noundef, ptr noundef) local_unnamed_addr #2

; Function Attrs: null_pointer_is_valid
declare dso_local void @acpi_ut_remove_reference(ptr noundef) local_unnamed_addr #2

; Function Attrs: null_pointer_is_valid allocsize(2)
declare dso_local noalias ptr @kmalloc_trace(ptr noundef, i32 noundef, i64 noundef) local_unnamed_addr #4

; Function Attrs: null_pointer_is_valid allocsize(0)
declare dso_local noalias ptr @__kmalloc(i64 noundef, i32 noundef) local_unnamed_addr #5

; Function Attrs: null_pointer_is_valid
declare dso_local void @kfree(ptr noundef) local_unnamed_addr #2


!llvm.module.flags = !{!0, !1, !2, !3, !4}

!0 = !{i32 1, !"wchar_size", i32 2}
!1 = !{i32 8, !"cf-protection-branch", i32 1}
!2 = !{i32 4, !"function_return_thunk_extern", i32 1}
!3 = !{i32 4, !"indirect_branch_cs_prefix", i32 1}
!4 = !{i32 4, !"SkipRaxSetup", i32 1}
!5 = !{!"auto-init"}
!6 = !{i64 1803861, i64 1803882}
